; ModuleID = '58/1034.c'
source_filename = "58/1034.c"
target datalayout = "e-m:e-p270:32:32-p271:32:32-p272:64:64-i64:64-f80:128-n8:16:32:64-S128"
target triple = "x86_64-pc-linux-gnu"

@.str = private unnamed_addr constant [3 x i8] c"0\0A\00", align 1
@.str.1 = private unnamed_addr constant [3 x i8] c"1\0A\00", align 1

; Function Attrs: noinline nounwind uwtable
define dso_local i32 @main() #0 {
  %1 = alloca i32, align 4
  %2 = alloca [10 x i8], align 1
  %3 = alloca i32, align 4
  %4 = alloca i32, align 4
  %5 = alloca i32, align 4
  %6 = alloca i32, align 4
  %7 = alloca [81 x i8], align 16
  %8 = alloca i32, align 4
  store i32 0, i32* %1, align 4
  %9 = getelementptr inbounds [10 x i8], [10 x i8]* %2, i64 0, i64 0
  %10 = call i32 (i8*, ...) bitcast (i32 (...)* @gets to i32 (i8*, ...)*)(i8* %9)
  %11 = getelementptr inbounds [10 x i8], [10 x i8]* %2, i64 0, i64 0
  %12 = call i64 @strlen(i8* %11) #3
  %13 = trunc i64 %12 to i32
  store i32 %13, i32* %3, align 4
  %14 = getelementptr inbounds [10 x i8], [10 x i8]* %2, i64 0, i64 0
  %15 = load i8, i8* %14, align 1
  %16 = sext i8 %15 to i32
  %17 = sub nsw i32 %16, 48
  store i32 %17, i32* %4, align 4
  store i32 1, i32* %5, align 4
  br label %18

18:                                               ; preds = %32, %0
  %19 = load i32, i32* %5, align 4
  %20 = load i32, i32* %3, align 4
  %21 = icmp slt i32 %19, %20
  br i1 %21, label %22, label %35

22:                                               ; preds = %18
  %23 = load i32, i32* %4, align 4
  %24 = mul nsw i32 %23, 10
  %25 = load i32, i32* %5, align 4
  %26 = sext i32 %25 to i64
  %27 = getelementptr inbounds [10 x i8], [10 x i8]* %2, i64 0, i64 %26
  %28 = load i8, i8* %27, align 1
  %29 = sext i8 %28 to i32
  %30 = add nsw i32 %24, %29
  %31 = sub nsw i32 %30, 48
  store i32 %31, i32* %4, align 4
  br label %32

32:                                               ; preds = %22
  %33 = load i32, i32* %5, align 4
  %34 = add nsw i32 %33, 1
  store i32 %34, i32* %5, align 4
  br label %18

35:                                               ; preds = %18
  store i32 0, i32* %6, align 4
  br label %36

36:                                               ; preds = %141, %35
  %37 = load i32, i32* %6, align 4
  %38 = load i32, i32* %4, align 4
  %39 = icmp slt i32 %37, %38
  br i1 %39, label %40, label %144

40:                                               ; preds = %36
  %41 = getelementptr inbounds [81 x i8], [81 x i8]* %7, i64 0, i64 0
  %42 = call i32 (i8*, ...) bitcast (i32 (...)* @gets to i32 (i8*, ...)*)(i8* %41)
  %43 = getelementptr inbounds [81 x i8], [81 x i8]* %7, i64 0, i64 0
  %44 = load i8, i8* %43, align 16
  %45 = sext i8 %44 to i32
  %46 = icmp eq i32 %45, 95
  br i1 %46, label %67, label %47

47:                                               ; preds = %40
  %48 = getelementptr inbounds [81 x i8], [81 x i8]* %7, i64 0, i64 0
  %49 = load i8, i8* %48, align 16
  %50 = sext i8 %49 to i32
  %51 = icmp sge i32 %50, 97
  br i1 %51, label %52, label %57

52:                                               ; preds = %47
  %53 = getelementptr inbounds [81 x i8], [81 x i8]* %7, i64 0, i64 0
  %54 = load i8, i8* %53, align 16
  %55 = sext i8 %54 to i32
  %56 = icmp sle i32 %55, 122
  br i1 %56, label %67, label %57

57:                                               ; preds = %52, %47
  %58 = getelementptr inbounds [81 x i8], [81 x i8]* %7, i64 0, i64 0
  %59 = load i8, i8* %58, align 16
  %60 = sext i8 %59 to i32
  %61 = icmp sge i32 %60, 65
  br i1 %61, label %62, label %138

62:                                               ; preds = %57
  %63 = getelementptr inbounds [81 x i8], [81 x i8]* %7, i64 0, i64 0
  %64 = load i8, i8* %63, align 16
  %65 = sext i8 %64 to i32
  %66 = icmp sle i32 %65, 90
  br i1 %66, label %67, label %138

67:                                               ; preds = %62, %52, %40
  store i32 1, i32* %8, align 4
  store i32 1, i32* %8, align 4
  br label %68

68:                                               ; preds = %126, %67
  %69 = load i32, i32* %8, align 4
  %70 = sext i32 %69 to i64
  %71 = getelementptr inbounds [81 x i8], [81 x i8]* %7, i64 0, i64 0
  %72 = call i64 @strlen(i8* %71) #3
  %73 = icmp ult i64 %70, %72
  br i1 %73, label %74, label %129

74:                                               ; preds = %68
  %75 = load i32, i32* %8, align 4
  %76 = sext i32 %75 to i64
  %77 = getelementptr inbounds [81 x i8], [81 x i8]* %7, i64 0, i64 %76
  %78 = load i8, i8* %77, align 1
  %79 = sext i8 %78 to i32
  %80 = icmp eq i32 %79, 95
  br i1 %80, label %123, label %81

81:                                               ; preds = %74
  %82 = load i32, i32* %8, align 4
  %83 = sext i32 %82 to i64
  %84 = getelementptr inbounds [81 x i8], [81 x i8]* %7, i64 0, i64 %83
  %85 = load i8, i8* %84, align 1
  %86 = sext i8 %85 to i32
  %87 = icmp sge i32 %86, 97
  br i1 %87, label %88, label %95

88:                                               ; preds = %81
  %89 = load i32, i32* %8, align 4
  %90 = sext i32 %89 to i64
  %91 = getelementptr inbounds [81 x i8], [81 x i8]* %7, i64 0, i64 %90
  %92 = load i8, i8* %91, align 1
  %93 = sext i8 %92 to i32
  %94 = icmp sle i32 %93, 122
  br i1 %94, label %123, label %95

95:                                               ; preds = %88, %81
  %96 = load i32, i32* %8, align 4
  %97 = sext i32 %96 to i64
  %98 = getelementptr inbounds [81 x i8], [81 x i8]* %7, i64 0, i64 %97
  %99 = load i8, i8* %98, align 1
  %100 = sext i8 %99 to i32
  %101 = icmp sge i32 %100, 65
  br i1 %101, label %102, label %109

102:                                              ; preds = %95
  %103 = load i32, i32* %8, align 4
  %104 = sext i32 %103 to i64
  %105 = getelementptr inbounds [81 x i8], [81 x i8]* %7, i64 0, i64 %104
  %106 = load i8, i8* %105, align 1
  %107 = sext i8 %106 to i32
  %108 = icmp sle i32 %107, 90
  br i1 %108, label %123, label %109

109:                                              ; preds = %102, %95
  %110 = load i32, i32* %8, align 4
  %111 = sext i32 %110 to i64
  %112 = getelementptr inbounds [81 x i8], [81 x i8]* %7, i64 0, i64 %111
  %113 = load i8, i8* %112, align 1
  %114 = sext i8 %113 to i32
  %115 = icmp sge i32 %114, 48
  br i1 %115, label %116, label %124

116:                                              ; preds = %109
  %117 = load i32, i32* %8, align 4
  %118 = sext i32 %117 to i64
  %119 = getelementptr inbounds [81 x i8], [81 x i8]* %7, i64 0, i64 %118
  %120 = load i8, i8* %119, align 1
  %121 = sext i8 %120 to i32
  %122 = icmp sle i32 %121, 57
  br i1 %122, label %123, label %124

123:                                              ; preds = %116, %102, %88, %74
  br label %126

124:                                              ; preds = %116, %109
  %125 = call i32 (i8*, ...) @printf(i8* getelementptr inbounds ([3 x i8], [3 x i8]* @.str, i64 0, i64 0))
  br label %129

126:                                              ; preds = %123
  %127 = load i32, i32* %8, align 4
  %128 = add nsw i32 %127, 1
  store i32 %128, i32* %8, align 4
  br label %68

129:                                              ; preds = %124, %68
  %130 = load i32, i32* %8, align 4
  %131 = sext i32 %130 to i64
  %132 = getelementptr inbounds [81 x i8], [81 x i8]* %7, i64 0, i64 0
  %133 = call i64 @strlen(i8* %132) #3
  %134 = icmp eq i64 %131, %133
  br i1 %134, label %135, label %137

135:                                              ; preds = %129
  %136 = call i32 (i8*, ...) @printf(i8* getelementptr inbounds ([3 x i8], [3 x i8]* @.str.1, i64 0, i64 0))
  br label %137

137:                                              ; preds = %135, %129
  br label %140

138:                                              ; preds = %62, %57
  %139 = call i32 (i8*, ...) @printf(i8* getelementptr inbounds ([3 x i8], [3 x i8]* @.str, i64 0, i64 0))
  br label %140

140:                                              ; preds = %138, %137
  br label %141

141:                                              ; preds = %140
  %142 = load i32, i32* %6, align 4
  %143 = add nsw i32 %142, 1
  store i32 %143, i32* %6, align 4
  br label %36

144:                                              ; preds = %36
  %145 = call i32 @getchar()
  %146 = call i32 @getchar()
  %147 = load i32, i32* %1, align 4
  ret i32 %147
}

declare dso_local i32 @gets(...) #1

; Function Attrs: nounwind readonly
declare dso_local i64 @strlen(i8*) #2

declare dso_local i32 @printf(i8*, ...) #1

declare dso_local i32 @getchar() #1


!llvm.module.flags = !{!0}
!llvm.ident = !{!1}

!0 = !{i32 1, !"wchar_size", i32 4}
!1 = !{!"clang version 10.0.0-4ubuntu1 "}
